target datalayout = "e-m:e-p270:32:32-p271:32:32-p272:64:64-i64:64-i128:128-f80:128-n8:16:32:64-S128"
target triple = "x86_64-unknown-linux-gnu"

%"class.icu_75::ResourceDataValue" = type <{ %"class.icu_75::ResourceValue", ptr, ptr, i32, %"class.icu_75::ResourceTracer", [3 x i8] }>
%"class.icu_75::ResourceValue" = type { %"class.icu_75::UObject" }
%"class.icu_75::UObject" = type { ptr }
%"class.icu_75::ResourceTracer" = type { i8 }

@.str.11 = private unnamed_addr constant [4 x i8] c"int\00", align 1

; Function Attrs: mustprogress nounwind uwtable
define linkonce_odr void @_ZNK6icu_7514ResourceTracer5traceEPKc(ptr noundef nonnull align 1 dereferenceable(1) %this, ptr noundef %0) #2 comdat align 2 {
entry:
  %this.addr = alloca ptr, align 8
  %.addr = alloca ptr, align 8
  store ptr %this, ptr %this.addr, align 8
  store ptr %0, ptr %.addr, align 8
  ret void
}

; Function Attrs: mustprogress nounwind uwtable
define linkonce_odr noundef i32 @_ZN6icu_7510res_getIntERKNS_14ResourceTracerEj(ptr noundef nonnull align 1 dereferenceable(1) %traceInfo, i32 noundef %res) #2 comdat {
entry:
  %traceInfo.addr = alloca ptr, align 8
  %res.addr = alloca i32, align 4
  store ptr %traceInfo, ptr %traceInfo.addr, align 8
  store i32 %res, ptr %res.addr, align 4
  %0 = load ptr, ptr %traceInfo.addr, align 8
  call void @_ZNK6icu_7514ResourceTracer5traceEPKc(ptr noundef nonnull align 1 dereferenceable(1) %0, ptr noundef @.str.11)
  %1 = load i32, ptr %res.addr, align 4
  %shl = shl i32 %1, 4
  %shr = ashr i32 %shl, 4
  ret i32 %shr
}

; Function Attrs: mustprogress nounwind uwtable
define internal noundef signext i8 @_ZL9U_FAILURE10UErrorCode(i32 noundef %code) #2 {
entry:
  %code.addr = alloca i32, align 4
  store i32 %code, ptr %code.addr, align 4
  %0 = load i32, ptr %code.addr, align 4
  %cmp = icmp sgt i32 %0, 0
  %conv = zext i1 %cmp to i8
  ret i8 %conv
}

; Function Attrs: mustprogress uwtable
define noundef i32 @_ZNK6icu_7517ResourceDataValue6getIntER10UErrorCode(ptr noundef nonnull align 8 dereferenceable(29) %this, ptr noundef nonnull align 4 dereferenceable(4) %errorCode) unnamed_addr #0 align 2 {
entry:
  %retval = alloca i32, align 4
  %this.addr = alloca ptr, align 8
  %errorCode.addr = alloca ptr, align 8
  store ptr %this, ptr %this.addr, align 8
  store ptr %errorCode, ptr %errorCode.addr, align 8
  %this1 = load ptr, ptr %this.addr, align 8
  %0 = load ptr, ptr %errorCode.addr, align 8
  %1 = load i32, ptr %0, align 4
  %call = call noundef signext i8 @_ZL9U_FAILURE10UErrorCode(i32 noundef %1)
  %tobool = icmp ne i8 %call, 0
  br i1 %tobool, label %if.then, label %if.end

if.then:                                          ; preds = %entry
  store i32 0, ptr %retval, align 4
  br label %return

if.end:                                           ; preds = %entry
  %res = getelementptr inbounds %"class.icu_75::ResourceDataValue", ptr %this1, i32 0, i32 3
  %2 = load i32, ptr %res, align 8
  %shr = lshr i32 %2, 28
  %cmp = icmp ne i32 %shr, 7
  br i1 %cmp, label %if.then2, label %if.end3

if.then2:                                         ; preds = %if.end
  %3 = load ptr, ptr %errorCode.addr, align 8
  store i32 17, ptr %3, align 4
  br label %if.end3

if.end3:                                          ; preds = %if.then2, %if.end
  %fTraceInfo = getelementptr inbounds %"class.icu_75::ResourceDataValue", ptr %this1, i32 0, i32 4
  %res4 = getelementptr inbounds %"class.icu_75::ResourceDataValue", ptr %this1, i32 0, i32 3
  %4 = load i32, ptr %res4, align 8
  %call5 = call noundef i32 @_ZN6icu_7510res_getIntERKNS_14ResourceTracerEj(ptr noundef nonnull align 1 dereferenceable(1) %fTraceInfo, i32 noundef %4)
  store i32 %call5, ptr %retval, align 4
  br label %return

return:                                           ; preds = %if.end3, %if.then
  %5 = load i32, ptr %retval, align 4
  ret i32 %5
}