; Function Attrs: mustprogress nofree norecurse nosync nounwind willreturn memory(argmem: readwrite) uwtable
define noundef i32 @_ZNK6icu_7517ResourceDataValue6getIntER10UErrorCode(ptr nocapture noundef nonnull readonly align 8 dereferenceable(29) %this, ptr nocapture noundef nonnull align 4 dereferenceable(4) %errorCode) unnamed_addr #2 align 2 {
entry:
  %0 = load i32, ptr %errorCode, align 4
  %cmp.i = icmp slt i32 %0, 1
  br i1 %cmp.i, label %if.end, label %return

if.end:                                           ; preds = %entry
  %res = getelementptr inbounds i8, ptr %this, i64 24
  %1 = load i32, ptr %res, align 8
  %shr.mask = and i32 %1, -268435456
  %cmp.not = icmp eq i32 %shr.mask, 1879048192
  br i1 %cmp.not, label %if.end3, label %if.then2

if.then2:                                         ; preds = %if.end
  store i32 17, ptr %errorCode, align 4
  %.pre = load i32, ptr %res, align 8
  br label %if.end3

if.end3:                                          ; preds = %if.then2, %if.end
  %2 = phi i32 [ %.pre, %if.then2 ], [ %1, %if.end ]
  %shl.i = shl i32 %2, 4
  %shr.i = ashr exact i32 %shl.i, 4
  br label %return

return:                                           ; preds = %entry, %if.end3
  %retval.0 = phi i32 [ %shr.i, %if.end3 ], [ 0, %entry ]
  ret i32 %retval.0
}